target datalayout = "e-m:e-p270:32:32-p271:32:32-p272:64:64-i64:64-i128:128-f80:128-n8:16:32:64-S128"
target triple = "x86_64-pc-linux-gnu"

%struct.err_state_st = type { [16 x %struct.err_error_st], i32, i32, ptr }
%struct.err_error_st = type { ptr, ptr, i32, i16, i8 }
%struct.__va_list_tag = type { i32, i32, ptr, ptr }

; Function Attrs: nounwind uwtable
define internal void @err_clear_data(ptr noundef %0) #0 {
  %2 = alloca ptr, align 8
  store ptr %0, ptr %2, align 8, !tbaa !20
  %3 = load ptr, ptr %2, align 8, !tbaa !20
  %4 = getelementptr inbounds nuw %struct.err_error_st, ptr %3, i32 0, i32 4
  %5 = load i8, ptr %4, align 2, !tbaa !30
  %6 = zext i8 %5 to i32
  %7 = and i32 %6, 16
  %8 = icmp ne i32 %7, 0
  br i1 %8, label %9, label %13

9:                                                ; preds = %1
  %10 = load ptr, ptr %2, align 8, !tbaa !20
  %11 = getelementptr inbounds nuw %struct.err_error_st, ptr %10, i32 0, i32 1
  %12 = load ptr, ptr %11, align 8, !tbaa !29
  call void @free(ptr noundef %12) #12
  br label %13

13:                                               ; preds = %9, %1
  %14 = load ptr, ptr %2, align 8, !tbaa !20
  %15 = getelementptr inbounds nuw %struct.err_error_st, ptr %14, i32 0, i32 1
  store ptr null, ptr %15, align 8, !tbaa !29
  %16 = load ptr, ptr %2, align 8, !tbaa !20
  %17 = getelementptr inbounds nuw %struct.err_error_st, ptr %16, i32 0, i32 4
  %18 = load i8, ptr %17, align 2, !tbaa !30
  %19 = zext i8 %18 to i32
  %20 = and i32 %19, -17
  %21 = trunc i32 %20 to i8
  store i8 %21, ptr %17, align 2, !tbaa !30
  ret void
}

; Function Attrs: nounwind uwtable
define internal ptr @err_get_state() #0 {
  %1 = alloca ptr, align 8
  %2 = alloca ptr, align 8
  %3 = alloca i32, align 4
  call void @llvm.lifetime.start.p0(i64 8, ptr %2) #12
  %4 = call ptr @CRYPTO_get_thread_local(i32 noundef 0)
  store ptr %4, ptr %2, align 8, !tbaa !15
  %5 = load ptr, ptr %2, align 8, !tbaa !15
  %6 = icmp eq ptr %5, null
  br i1 %6, label %7, label %19

7:                                                ; preds = %0
  %8 = call noalias ptr @malloc(i64 noundef 400) #13
  store ptr %8, ptr %2, align 8, !tbaa !15
  %9 = load ptr, ptr %2, align 8, !tbaa !15
  %10 = icmp eq ptr %9, null
  br i1 %10, label %11, label %12

11:                                               ; preds = %7
  store ptr null, ptr %1, align 8
  store i32 1, ptr %3, align 4
  br label %21

12:                                               ; preds = %7
  %13 = load ptr, ptr %2, align 8, !tbaa !15
  call void @llvm.memset.p0.i64(ptr align 8 %13, i8 0, i64 400, i1 false)
  %14 = load ptr, ptr %2, align 8, !tbaa !15
  %15 = call i32 @CRYPTO_set_thread_local(i32 noundef 0, ptr noundef %14, ptr noundef @err_state_free)
  %16 = icmp ne i32 %15, 0
  br i1 %16, label %18, label %17

17:                                               ; preds = %12
  store ptr null, ptr %1, align 8
  store i32 1, ptr %3, align 4
  br label %21

18:                                               ; preds = %12
  br label %19

19:                                               ; preds = %18, %0
  %20 = load ptr, ptr %2, align 8, !tbaa !15
  store ptr %20, ptr %1, align 8
  store i32 1, ptr %3, align 4
  br label %21

21:                                               ; preds = %19, %17, %11
  call void @llvm.lifetime.end.p0(i64 8, ptr %2) #12
  %22 = load ptr, ptr %1, align 8
  ret ptr %22
}

; Function Attrs: nounwind uwtable
define internal void @err_set_error_data(ptr noundef %0, i32 noundef %1) #0 {
  %3 = alloca ptr, align 8
  %4 = alloca i32, align 4
  %5 = alloca ptr, align 8
  %6 = alloca ptr, align 8
  %7 = alloca i32, align 4
  store ptr %0, ptr %3, align 8, !tbaa !27
  store i32 %1, ptr %4, align 4, !tbaa !6
  call void @llvm.lifetime.start.p0(i64 8, ptr %5) #12
  %8 = call ptr @err_get_state()
  store ptr %8, ptr %5, align 8, !tbaa !15
  call void @llvm.lifetime.start.p0(i64 8, ptr %6) #12
  %9 = load ptr, ptr %5, align 8, !tbaa !15
  %10 = icmp eq ptr %9, null
  br i1 %10, label %19, label %11

11:                                               ; preds = %2
  %12 = load ptr, ptr %5, align 8, !tbaa !15
  %13 = getelementptr inbounds nuw %struct.err_state_st, ptr %12, i32 0, i32 1
  %14 = load i32, ptr %13, align 8, !tbaa !19
  %15 = load ptr, ptr %5, align 8, !tbaa !15
  %16 = getelementptr inbounds nuw %struct.err_state_st, ptr %15, i32 0, i32 2
  %17 = load i32, ptr %16, align 4, !tbaa !17
  %18 = icmp eq i32 %14, %17
  br i1 %18, label %19, label %26

19:                                               ; preds = %11, %2
  %20 = load i32, ptr %4, align 4, !tbaa !6
  %21 = and i32 %20, 16
  %22 = icmp ne i32 %21, 0
  br i1 %22, label %23, label %25

23:                                               ; preds = %19
  %24 = load ptr, ptr %3, align 8, !tbaa !27
  call void @free(ptr noundef %24) #12
  br label %25

25:                                               ; preds = %23, %19
  store i32 1, ptr %7, align 4
  br label %42

26:                                               ; preds = %11
  %27 = load ptr, ptr %5, align 8, !tbaa !15
  %28 = getelementptr inbounds nuw %struct.err_state_st, ptr %27, i32 0, i32 0
  %29 = load ptr, ptr %5, align 8, !tbaa !15
  %30 = getelementptr inbounds nuw %struct.err_state_st, ptr %29, i32 0, i32 1
  %31 = load i32, ptr %30, align 8, !tbaa !19
  %32 = zext i32 %31 to i64
  %33 = getelementptr inbounds nuw [16 x %struct.err_error_st], ptr %28, i64 0, i64 %32
  store ptr %33, ptr %6, align 8, !tbaa !20
  %34 = load ptr, ptr %6, align 8, !tbaa !20
  call void @err_clear_data(ptr noundef %34)
  %35 = load ptr, ptr %3, align 8, !tbaa !27
  %36 = load ptr, ptr %6, align 8, !tbaa !20
  %37 = getelementptr inbounds nuw %struct.err_error_st, ptr %36, i32 0, i32 1
  store ptr %35, ptr %37, align 8, !tbaa !29
  %38 = load i32, ptr %4, align 4, !tbaa !6
  %39 = trunc i32 %38 to i8
  %40 = load ptr, ptr %6, align 8, !tbaa !20
  %41 = getelementptr inbounds nuw %struct.err_error_st, ptr %40, i32 0, i32 4
  store i8 %39, ptr %41, align 2, !tbaa !30
  store i32 0, ptr %7, align 4
  br label %42

42:                                               ; preds = %26, %25
  call void @llvm.lifetime.end.p0(i64 8, ptr %6) #12
  call void @llvm.lifetime.end.p0(i64 8, ptr %5) #12
  %43 = load i32, ptr %7, align 4
  switch i32 %43, label %45 [
    i32 0, label %44
    i32 1, label %44
  ]

44:                                               ; preds = %42, %42
  ret void

45:                                               ; preds = %42
  unreachable
}

; Function Attrs: nounwind uwtable
define internal void @err_add_error_vdata(i32 noundef %0, ptr noundef %1) #0 {
  %3 = alloca i32, align 4
  %4 = alloca ptr, align 8
  %5 = alloca i64, align 8
  %6 = alloca i64, align 8
  %7 = alloca i64, align 8
  %8 = alloca i64, align 8
  %9 = alloca ptr, align 8
  %10 = alloca ptr, align 8
  %11 = alloca i32, align 4
  %12 = alloca i32, align 4
  %13 = alloca ptr, align 8
  store i32 %0, ptr %3, align 4, !tbaa !6
  store ptr %1, ptr %4, align 8, !tbaa !40
  call void @llvm.lifetime.start.p0(i64 8, ptr %5) #12
  call void @llvm.lifetime.start.p0(i64 8, ptr %6) #12
  call void @llvm.lifetime.start.p0(i64 8, ptr %7) #12
  store i64 0, ptr %7, align 8, !tbaa !34
  call void @llvm.lifetime.start.p0(i64 8, ptr %8) #12
  call void @llvm.lifetime.start.p0(i64 8, ptr %9) #12
  call void @llvm.lifetime.start.p0(i64 8, ptr %10) #12
  call void @llvm.lifetime.start.p0(i64 4, ptr %11) #12
  store i64 80, ptr %5, align 8, !tbaa !34
  %14 = load i64, ptr %5, align 8, !tbaa !34
  %15 = add i64 %14, 1
  %16 = call noalias ptr @malloc(i64 noundef %15) #13
  store ptr %16, ptr %9, align 8, !tbaa !27
  %17 = load ptr, ptr %9, align 8, !tbaa !27
  %18 = icmp eq ptr %17, null
  br i1 %18, label %19, label %20

19:                                               ; preds = %2
  store i32 1, ptr %12, align 4
  br label %93

20:                                               ; preds = %2
  store i32 0, ptr %11, align 4, !tbaa !6
  br label %21

21:                                               ; preds = %85, %20
  %22 = load i32, ptr %11, align 4, !tbaa !6
  %23 = load i32, ptr %3, align 4, !tbaa !6
  %24 = icmp ult i32 %22, %23
  br i1 %24, label %25, label %88

25:                                               ; preds = %21
  %26 = load ptr, ptr %4, align 8, !tbaa !40
  %27 = getelementptr inbounds nuw %struct.__va_list_tag, ptr %26, i32 0, i32 0
  %28 = load i32, ptr %27, align 8
  %29 = icmp ule i32 %28, 40
  br i1 %29, label %30, label %35

30:                                               ; preds = %25
  %31 = getelementptr inbounds nuw %struct.__va_list_tag, ptr %26, i32 0, i32 3
  %32 = load ptr, ptr %31, align 8
  %33 = getelementptr i8, ptr %32, i32 %28
  %34 = add i32 %28, 8
  store i32 %34, ptr %27, align 8
  br label %39

35:                                               ; preds = %25
  %36 = getelementptr inbounds nuw %struct.__va_list_tag, ptr %26, i32 0, i32 2
  %37 = load ptr, ptr %36, align 8
  %38 = getelementptr i8, ptr %37, i32 8
  store ptr %38, ptr %36, align 8
  br label %39

39:                                               ; preds = %35, %30
  %40 = phi ptr [ %33, %30 ], [ %37, %35 ]
  %41 = load ptr, ptr %40, align 8, !tbaa !27
  store ptr %41, ptr %10, align 8, !tbaa !27
  %42 = load ptr, ptr %10, align 8, !tbaa !27
  %43 = icmp eq ptr %42, null
  br i1 %43, label %44, label %45

44:                                               ; preds = %39
  br label %85

45:                                               ; preds = %39
  %46 = load ptr, ptr %10, align 8, !tbaa !27
  %47 = call i64 @strlen(ptr noundef %46) #15
  store i64 %47, ptr %8, align 8, !tbaa !34
  %48 = load i64, ptr %7, align 8, !tbaa !34
  %49 = load i64, ptr %8, align 8, !tbaa !34
  %50 = add i64 %48, %49
  store i64 %50, ptr %6, align 8, !tbaa !34
  %51 = load i64, ptr %6, align 8, !tbaa !34
  %52 = load i64, ptr %5, align 8, !tbaa !34
  %53 = icmp ugt i64 %51, %52
  br i1 %53, label %54, label %78

54:                                               ; preds = %45
  call void @llvm.lifetime.start.p0(i64 8, ptr %13) #12
  %55 = load i64, ptr %5, align 8, !tbaa !34
  %56 = add i64 %55, 20
  %57 = add i64 %56, 1
  %58 = load i64, ptr %5, align 8, !tbaa !34
  %59 = icmp ult i64 %57, %58
  br i1 %59, label %60, label %62

60:                                               ; preds = %54
  %61 = load ptr, ptr %9, align 8, !tbaa !27
  call void @free(ptr noundef %61) #12
  store i32 1, ptr %12, align 4
  br label %75

62:                                               ; preds = %54
  %63 = load i64, ptr %6, align 8, !tbaa !34
  %64 = add i64 %63, 20
  store i64 %64, ptr %5, align 8, !tbaa !34
  %65 = load ptr, ptr %9, align 8, !tbaa !27
  %66 = load i64, ptr %5, align 8, !tbaa !34
  %67 = add i64 %66, 1
  %68 = call ptr @realloc(ptr noundef %65, i64 noundef %67) #16
  store ptr %68, ptr %13, align 8, !tbaa !27
  %69 = load ptr, ptr %13, align 8, !tbaa !27
  %70 = icmp eq ptr %69, null
  br i1 %70, label %71, label %73

71:                                               ; preds = %62
  %72 = load ptr, ptr %9, align 8, !tbaa !27
  call void @free(ptr noundef %72) #12
  store i32 1, ptr %12, align 4
  br label %75

73:                                               ; preds = %62
  %74 = load ptr, ptr %13, align 8, !tbaa !27
  store ptr %74, ptr %9, align 8, !tbaa !27
  store i32 0, ptr %12, align 4
  br label %75

75:                                               ; preds = %73, %71, %60
  call void @llvm.lifetime.end.p0(i64 8, ptr %13) #12
  %76 = load i32, ptr %12, align 4
  switch i32 %76, label %93 [
    i32 0, label %77
  ]

77:                                               ; preds = %75
  br label %78

78:                                               ; preds = %77, %45
  %79 = load ptr, ptr %9, align 8, !tbaa !27
  %80 = load i64, ptr %7, align 8, !tbaa !34
  %81 = getelementptr inbounds nuw i8, ptr %79, i64 %80
  %82 = load ptr, ptr %10, align 8, !tbaa !27
  %83 = load i64, ptr %8, align 8, !tbaa !34
  call void @llvm.memcpy.p0.p0.i64(ptr align 1 %81, ptr align 1 %82, i64 %83, i1 false)
  %84 = load i64, ptr %6, align 8, !tbaa !34
  store i64 %84, ptr %7, align 8, !tbaa !34
  br label %85

85:                                               ; preds = %78, %44
  %86 = load i32, ptr %11, align 4, !tbaa !6
  %87 = add i32 %86, 1
  store i32 %87, ptr %11, align 4, !tbaa !6
  br label %21, !llvm.loop !42

88:                                               ; preds = %21
  %89 = load ptr, ptr %9, align 8, !tbaa !27
  %90 = load i64, ptr %7, align 8, !tbaa !34
  %91 = getelementptr inbounds nuw i8, ptr %89, i64 %90
  store i8 0, ptr %91, align 1, !tbaa !43
  %92 = load ptr, ptr %9, align 8, !tbaa !27
  call void @err_set_error_data(ptr noundef %92, i32 noundef 17)
  store i32 0, ptr %12, align 4
  br label %93

93:                                               ; preds = %88, %75, %19
  call void @llvm.lifetime.end.p0(i64 4, ptr %11) #12
  call void @llvm.lifetime.end.p0(i64 8, ptr %10) #12
  call void @llvm.lifetime.end.p0(i64 8, ptr %9) #12
  call void @llvm.lifetime.end.p0(i64 8, ptr %8) #12
  call void @llvm.lifetime.end.p0(i64 8, ptr %7) #12
  call void @llvm.lifetime.end.p0(i64 8, ptr %6) #12
  call void @llvm.lifetime.end.p0(i64 8, ptr %5) #12
  %94 = load i32, ptr %12, align 4
  switch i32 %94, label %96 [
    i32 0, label %95
    i32 1, label %95
  ]

95:                                               ; preds = %93, %93
  ret void

96:                                               ; preds = %93
  unreachable
}

; Function Attrs: nounwind uwtable
define hidden void @ERR_add_error_data(i32 noundef %0, ...) #0 {
  %2 = alloca i32, align 4
  %3 = alloca [1 x %struct.__va_list_tag], align 16
  store i32 %0, ptr %2, align 4, !tbaa !6
  call void @llvm.lifetime.start.p0(i64 24, ptr %3) #12
  %4 = getelementptr inbounds [1 x %struct.__va_list_tag], ptr %3, i64 0, i64 0
  call void @llvm.va_start.p0(ptr %4)
  %5 = load i32, ptr %2, align 4, !tbaa !6
  %6 = getelementptr inbounds [1 x %struct.__va_list_tag], ptr %3, i64 0, i64 0
  call void @err_add_error_vdata(i32 noundef %5, ptr noundef %6)
  %7 = getelementptr inbounds [1 x %struct.__va_list_tag], ptr %3, i64 0, i64 0
  call void @llvm.va_end.p0(ptr %7)
  call void @llvm.lifetime.end.p0(i64 24, ptr %3) #12
  ret void
}