; Function Attrs: nounwind uwtable
define hidden void @ERR_add_error_data(i32 noundef %0, ...) local_unnamed_addr #0 {
  %2 = alloca [1 x %struct.__va_list_tag], align 16
  call void @llvm.lifetime.start.p0(i64 24, ptr nonnull %2) #17
  call void @llvm.va_start.p0(ptr nonnull %2)
  %3 = call noalias dereferenceable_or_null(81) ptr @malloc(i64 noundef 81) #20
  %4 = icmp eq ptr %3, null
  br i1 %4, label %err_add_error_vdata.exit, label %.preheader.i

.preheader.i:                                     ; preds = %1
  %.not.i = icmp eq i32 %0, 0
  br i1 %.not.i, label %._crit_edge.i, label %.lr.ph.i

.lr.ph.i:                                         ; preds = %.preheader.i
  %5 = getelementptr inbounds nuw i8, ptr %2, i64 8
  %6 = getelementptr inbounds nuw i8, ptr %2, i64 16
  br label %7

7:                                                ; preds = %37, %.lr.ph.i
  %.052.i = phi i64 [ 80, %.lr.ph.i ], [ %.1.i, %37 ]
  %.03051.i = phi i32 [ 0, %.lr.ph.i ], [ %38, %37 ]
  %.03150.i = phi i64 [ 0, %.lr.ph.i ], [ %.132.i, %37 ]
  %.03349.i = phi ptr [ %3, %.lr.ph.i ], [ %.134.i, %37 ]
  %8 = load i32, ptr %2, align 16
  %9 = icmp ult i32 %8, 41
  br i1 %9, label %10, label %15

10:                                               ; preds = %7
  %11 = load ptr, ptr %6, align 16
  %12 = zext nneg i32 %8 to i64
  %13 = getelementptr i8, ptr %11, i64 %12
  %14 = add nuw nsw i32 %8, 8
  store i32 %14, ptr %2, align 16
  br label %18

15:                                               ; preds = %7
  %16 = load ptr, ptr %5, align 8
  %17 = getelementptr i8, ptr %16, i64 8
  store ptr %17, ptr %5, align 8
  br label %18

18:                                               ; preds = %15, %10
  %19 = phi ptr [ %13, %10 ], [ %16, %15 ]
  %20 = load ptr, ptr %19, align 8, !tbaa !20
  %21 = icmp eq ptr %20, null
  br i1 %21, label %37, label %22

22:                                               ; preds = %18
  %23 = call i64 @strlen(ptr noundef nonnull dereferenceable(1) %20) #19
  %24 = add i64 %23, %.03150.i
  %25 = icmp ugt i64 %24, %.052.i
  br i1 %25, label %26, label %35

26:                                               ; preds = %22
  %27 = icmp ugt i64 %.052.i, -22
  br i1 %27, label %28, label %29

28:                                               ; preds = %26
  call void @free(ptr noundef %.03349.i) #17
  br label %err_add_error_vdata.exit

29:                                               ; preds = %26
  %30 = add i64 %24, 20
  %31 = add i64 %24, 21
  %32 = call ptr @realloc(ptr noundef %.03349.i, i64 noundef %31) #21
  %33 = icmp eq ptr %32, null
  br i1 %33, label %34, label %35

34:                                               ; preds = %29
  call void @free(ptr noundef %.03349.i) #17
  br label %err_add_error_vdata.exit

35:                                               ; preds = %29, %22
  %.235.i = phi ptr [ %.03349.i, %22 ], [ %32, %29 ]
  %.2.i = phi i64 [ %.052.i, %22 ], [ %30, %29 ]
  %36 = getelementptr inbounds nuw i8, ptr %.235.i, i64 %.03150.i
  call void @llvm.memcpy.p0.p0.i64(ptr align 1 %36, ptr nonnull align 1 %20, i64 %23, i1 false)
  br label %37

37:                                               ; preds = %35, %18
  %.134.i = phi ptr [ %.03349.i, %18 ], [ %.235.i, %35 ]
  %.132.i = phi i64 [ %.03150.i, %18 ], [ %24, %35 ]
  %.1.i = phi i64 [ %.052.i, %18 ], [ %.2.i, %35 ]
  %38 = add nuw i32 %.03051.i, 1
  %exitcond.not.i = icmp eq i32 %38, %0
  br i1 %exitcond.not.i, label %._crit_edge.i, label %7, !llvm.loop !30

._crit_edge.i:                                    ; preds = %37, %.preheader.i
  %.033.lcssa.i = phi ptr [ %3, %.preheader.i ], [ %.134.i, %37 ]
  %.031.lcssa.i = phi i64 [ 0, %.preheader.i ], [ %.132.i, %37 ]
  %39 = getelementptr inbounds nuw i8, ptr %.033.lcssa.i, i64 %.031.lcssa.i
  store i8 0, ptr %39, align 1, !tbaa !31
  %40 = call ptr @CRYPTO_get_thread_local(i32 noundef 0) #17
  %41 = icmp eq ptr %40, null
  br i1 %41, label %42, label %err_get_state.exit.i.i

42:                                               ; preds = %._crit_edge.i
  %calloc.i.i.i = call dereferenceable_or_null(400) ptr @calloc(i64 1, i64 400)
  %43 = icmp eq ptr %calloc.i.i.i, null
  br i1 %43, label %err_get_state.exit.thread.i.i, label %44

44:                                               ; preds = %42
  %45 = call i32 @CRYPTO_set_thread_local(i32 noundef 0, ptr noundef nonnull %calloc.i.i.i, ptr noundef nonnull @err_state_free) #17
  %.not.i.i.i = icmp eq i32 %45, 0
  br i1 %.not.i.i.i, label %err_get_state.exit.thread.i.i, label %err_get_state.exit.i.i

err_get_state.exit.i.i:                           ; preds = %44, %._crit_edge.i
  %.06.i.i.i = phi ptr [ %40, %._crit_edge.i ], [ %calloc.i.i.i, %44 ]
  %46 = getelementptr inbounds nuw i8, ptr %.06.i.i.i, i64 384
  %47 = load i32, ptr %46, align 8, !tbaa !12
  %48 = getelementptr inbounds nuw i8, ptr %.06.i.i.i, i64 388
  %49 = load i32, ptr %48, align 4, !tbaa !6
  %50 = icmp eq i32 %47, %49
  br i1 %50, label %err_get_state.exit.thread.i.i, label %51

err_get_state.exit.thread.i.i:                    ; preds = %err_get_state.exit.i.i, %44, %42
  call void @free(ptr noundef nonnull %.033.lcssa.i) #17
  br label %err_add_error_vdata.exit

51:                                               ; preds = %err_get_state.exit.i.i
  %52 = zext i32 %47 to i64
  %53 = getelementptr inbounds nuw [16 x %struct.err_error_st], ptr %.06.i.i.i, i64 0, i64 %52
  %54 = getelementptr inbounds nuw i8, ptr %53, i64 22
  %55 = load i8, ptr %54, align 2, !tbaa !17
  %56 = and i8 %55, 16
  %.not.i12.i.i = icmp eq i8 %56, 0
  br i1 %.not.i12.i.i, label %err_clear_data.exit.i.i, label %57

57:                                               ; preds = %51
  %58 = getelementptr inbounds nuw i8, ptr %53, i64 8
  %59 = load ptr, ptr %58, align 8, !tbaa !18
  call void @free(ptr noundef %59) #17
  br label %err_clear_data.exit.i.i

err_clear_data.exit.i.i:                          ; preds = %57, %51
  %60 = getelementptr inbounds nuw i8, ptr %53, i64 8
  store ptr %.033.lcssa.i, ptr %60, align 8, !tbaa !18
  store i8 17, ptr %54, align 2, !tbaa !17
  br label %err_add_error_vdata.exit

err_add_error_vdata.exit:                         ; preds = %1, %28, %34, %err_get_state.exit.thread.i.i, %err_clear_data.exit.i.i
  call void @llvm.va_end.p0(ptr nonnull %2)
  call void @llvm.lifetime.end.p0(i64 24, ptr nonnull %2) #17
  ret void
}